; Function Attrs: mustprogress uwtable
define noundef ptr @ulocale_openForLocaleID_77(ptr noundef %0, i32 noundef %1, ptr noundef readonly captures(none) %2) local_unnamed_addr #1 personality ptr @__gxx_personality_v0 {
  %4 = alloca %"class.icu_77::Locale", align 8
  %5 = alloca %"class.icu_77::Locale", align 8
  %6 = load i32, ptr %2, align 4, !tbaa !13
  %7 = icmp slt i32 %6, 1
  br i1 %7, label %8, label %20

8:                                                ; preds = %3
  %9 = icmp slt i32 %1, 0
  br i1 %9, label %10, label %15

10:                                               ; preds = %8
  call void @llvm.lifetime.start.p0(i64 224, ptr nonnull %4) #14
  call void @_ZN6icu_776Locale14createFromNameEPKc(ptr dead_on_unwind nonnull writable sret(%"class.icu_77::Locale") align 8 %4, ptr noundef %0)
  %11 = invoke noundef ptr @_ZNK6icu_776Locale5cloneEv(ptr noundef nonnull align 8 dereferenceable(217) %4)
          to label %12 unwind label %13

12:                                               ; preds = %10
  call void @_ZN6icu_776LocaleD1Ev(ptr noundef nonnull align 8 dereferenceable(217) %4) #14
  call void @llvm.lifetime.end.p0(i64 224, ptr nonnull %4) #14
  br label %20

13:                                               ; preds = %10
  %14 = landingpad { ptr, i32 }
          cleanup
  call void @_ZN6icu_776LocaleD1Ev(ptr noundef nonnull align 8 dereferenceable(217) %4) #14
  call void @llvm.lifetime.end.p0(i64 224, ptr nonnull %4) #14
  br label %21

15:                                               ; preds = %8
  call void @llvm.lifetime.start.p0(i64 224, ptr nonnull %5) #14
  call void @_ZN6icu_776Locale14createFromNameENS_11StringPieceE(ptr dead_on_unwind nonnull writable sret(%"class.icu_77::Locale") align 8 %5, ptr %0, i32 %1)
  %16 = invoke noundef ptr @_ZNK6icu_776Locale5cloneEv(ptr noundef nonnull align 8 dereferenceable(217) %5)
          to label %17 unwind label %18

17:                                               ; preds = %15
  call void @_ZN6icu_776LocaleD1Ev(ptr noundef nonnull align 8 dereferenceable(217) %5) #14
  call void @llvm.lifetime.end.p0(i64 224, ptr nonnull %5) #14
  br label %20

18:                                               ; preds = %15
  %19 = landingpad { ptr, i32 }
          cleanup
  call void @_ZN6icu_776LocaleD1Ev(ptr noundef nonnull align 8 dereferenceable(217) %5) #14
  call void @llvm.lifetime.end.p0(i64 224, ptr nonnull %5) #14
  br label %21

20:                                               ; preds = %3, %17, %12
  %.08 = phi ptr [ %11, %12 ], [ %16, %17 ], [ null, %3 ]
  ret ptr %.08

21:                                               ; preds = %18, %13
  %.pn = phi { ptr, i32 } [ %14, %13 ], [ %19, %18 ]
  resume { ptr, i32 } %.pn
}